; Function Attrs: mustprogress uwtable
define dso_local void @_ZN3net14QuicHeaderListC2ERKS0_(ptr noundef nonnull align 8 dereferenceable(96) %this, ptr noundef nonnull align 8 dereferenceable(96) %other) unnamed_addr #0 align 2 personality ptr @__gxx_personality_v0 {
entry:
  store ptr getelementptr inbounds ({ [7 x ptr] }, ptr @_ZTVN3net14QuicHeaderListE, i64 0, i32 0, i64 2), ptr %this, align 8
  %header_list_ = getelementptr inbounds i8, ptr %this, i64 8
  %header_list_2 = getelementptr inbounds i8, ptr %other, i64 8
  tail call void @_ZNSt5dequeISt4pairINSt7__cxx1112basic_stringIcSt11char_traitsIcESaIcEEES6_ESaIS7_EEC2ERKS9_(ptr noundef nonnull align 8 dereferenceable(80) %header_list_, ptr noundef nonnull align 8 dereferenceable(80) %header_list_2)
  %uncompressed_header_bytes_ = getelementptr inbounds i8, ptr %this, i64 88
  %uncompressed_header_bytes_3 = getelementptr inbounds i8, ptr %other, i64 88
  %0 = load i64, ptr %uncompressed_header_bytes_3, align 8
  store i64 %0, ptr %uncompressed_header_bytes_, align 8
  ret void
}